(dp0
S'tsParams'
p1
(dp2
S'basket'
p3
(lp4
(dp5
S'topics'
p6
S'12'
p7
sS'document'
p8
(dp9
S'content'
p10
S'ID=A0022\rURL=http://www.standardlifebank.com/page.php?id_link=90\rSIZE=76076\rDATE=27/06/02\rTIME=16:50:19\rDATASET=Commercial Banks\rHTML=<html>\r<head>\r<title>Standard Life Bank - Rates</title>\r<meta http-equiv="Content-Type" content="text/html; charset=iso-8859-1">\r<LINK href="/styles/search.css" rel=stylesheet>\r<link rel=stylesheet href="/styles/styles.css">\r<link rel=stylesheet href="/styles/styles_inside.css">\r<script language="JavaScript" src="/scripts/javascript.js"></script>\r\r<script language="Javascript" type="text/javascript" src="/dynapi/dynapi/ie6compatible/menusArray.js"></script>\r<script language="Javascript" type="text/javascript" src="/dynapi/dynapi.js"></script>\r<script language="Javascript" type="text/javascript" src="/dynapi/menuInit.js"></script>\r\r\r<script language="Javascript">\r\rfunction overMenu (div) {\r\tobj = eval(div+\'.style\')\r\tobj.backgroundColor = "FFFFFF"\r}\r\r\rfunction outMenu (div) {\r\tobj = eval(div+\'.style\')\r\tobj.backgroundColor = "FFE57F"\r}\r</script>\r\r<script>\r\tfunction openWin(url) {\r\t\tMortWin=window.open(url,"MortWin",\r\t\t"toolbar=no,menubar=no,scrollbars=yes,status=no,resizable=no,width=450,height=500");\r\t}\r\r\tfunction openWin2(url) {\r\t\tMortWin=window.open(url,"MortWin2",\r\t\t"toolbar=no,menubar=no,scrollbars=yes,status=no,resizable=no,width=500,height=500");\r\t}\r\r</script>\r<script language="Javascript" type="text/javascript" src="/scripts/javascript.js"></script>\r</head>\r\r<body bgcolor="#FFffff" alink="#FFA500" leftmargin="0" rightmargin="0" topmargin="0" bottommargin="0" marginwidth="0" marginheight="0">\r\r\r\r<table border=0 cellpadding=0 cellspacing=0 valign=top width=100%>\r<tr>\r<td bgcolor=#ffffff width=150 height=55 background="/img/insidebackc.gif" rowspan=2 valign=top align="right">\r<A HREF="#navigation"><img src="/img/space.gif" width="1" height="1" BORDER="0" alt="jump to non-javascript navigation"></A>\r<span align="left"><a href="/"><img src="/img/insidelogoc.gif" width=129 height=55 border=0 alt="Standard Life Bank Logo"></a></span>\r\r<!--<span class="subboldd">\r<BR><BR>\r\r<BR><BR>\r</span>-->\r\r\r<br><br>\r<!-- TO BE TEMPLATED -->\r\r<div align=right><img src="/img/dot.gif" width=10 height=300 alt="." align=right border=0><span class="subboldd"><a href="/page.php?id_link=160" onmouseover="openMenu(1)" onmouseout="clearMenu()">About Us</a></span><br><img src="/img/navdots.gif" alt="." vspace=6><br><span class="subboldd"><a href="/page.php?id_link=76" onmouseover="openMenu(2)" onmouseout="clearMenu()">Mortgages</a></span><br><img src="/img/navdots.gif" alt="." vspace=6><br><span class="subboldd"><a href="/page.php?id_link=75" onmouseover="openMenu(3)" onmouseout="clearMenu()">Personal Savings</a></span><br><img src="/img/navdots.gif" alt="." vspace=6><br><span class="subboldd"><a href="/page.php?id_link=83" onmouseover="openMenu(4)" onmouseout="clearMenu()">Business Savings</a></span><br><img src="/img/navdots.gif" alt="." vspace=6><br><span class="subboldd"><a href="/page.php?id_link=84" onmouseover="openMenu(5)" onmouseout="clearMenu()">Insurance</a></span><br><img src="/img/navdots.gif" alt="." vspace=6><br><span class="subboldd"><a href="/page.php?id_link=91" onmouseover="openMenu(6)" onmouseout="clearMenu()">Online Banking</a></span><br><img src="/img/navdots.gif" alt="." vspace=6><br><span class="subboldd"><a href="/page.php?id_link=89" onmouseover="openMenu(7)" onmouseout="clearMenu()">Contact Us</a></span><br><img src="/img/navdots.gif" alt="." vspace=6><br><span class="subboldd"><a href="/page.php?id_link=90" onmouseover="clearMenuNow()">Rates</a><br><img src="/img/navdots.gif" alt="." vspace=6><br><span class="subboldd"><a href="/page.php?id_link=266" onmouseover="clearMenuNow()">Brochure Library</a><br><img src="/img/navdots.gif" alt="." vspace=6><br><span class="subboldd"><a href="/page.php?id_link=543" onmouseover="openMenu(10)" onmouseout="clearMenu()">Added Extras</a></span><br><img src="/img/navdots.gif" alt="." vspace=6><br><span class="subboldd"><a href="/page.php?id_link=608" onmouseover="clearMenuNow()">Site Map</a><br></div>\r\r<!-- TO BE TEMPLATED END -->\r\r<img src="/img/search/insideundernavc.gif" width=150 height=28 border=0 alt="*"><!-- start site search box --><TABLE WIDTH="100%" BORDER="0" CELLSPACING="0" CELLPADDING="0">\r<TR ALIGN="LEFT">\r<TD>\r<TABLE BORDER=0 CELLPADDING=0 CELLSPACING=0 WIDTH=100>\r       \r<TR>\r<TD CLASS="slbsearchinside" COLSPAN=2>\r<TABLE BORDER=0 CELLPADDING=0 CELLSPACING=0 WIDTH=100%>\r<TR>\r<TD CLASS="slbsearchinside" ALIGN=middle WIDTH=10%><A HREF="slb-results.html"><IMG SRC="/img/search/search-magnify-d.gif" BORDER=0 ALT="search" HEIGHT=29 WIDTH=40 HSPACE=4 VSPACE=2></A>\r</TD>\r<TD CLASS="slbsearchinside" ALIGN=left><SPAN CLASS="bodytextbold">Search</SPAN>\r</TD>\r</TR>\r</TABLE>\r</TD>\r</TR>\r      \r<TR>\r<FORM NAME="search1" ACTION="/search/servlet/SLB_Search" method="post">\r<TD CLASS="slbsearchinside">&nbsp;&nbsp;&nbsp;\r<INPUT TYPE="text" NAME="search" SIZE="10" CLASS=subboldsearch label="Search">\r<INPUT TYPE="HIDDEN" NAME="uid" VALUE=1>\r<INPUT TYPE="HIDDEN" NAME="mode" VALUE="search">\r<INPUT TYPE="HIDDEN" NAME="searchtype" VALUE="slb_dev">\r<INPUT TYPE="HIDDEN" NAME="from" VALUE="0">\r<INPUT TYPE="HIDDEN" NAME="to" VALUE="9">\r</TD>\r<TD CLASS="slbsearchinside-button" WIDTH=50 VALIGN=top ALIGN=center>&nbsp;&nbsp;<input type="image" src="/img/go_4.gif"   alt="go" name="go" class="go">&nbsp;&nbsp;</TD>\r</FORM>\r</TR>\r    \r<TR>\r<TD COLSPAN=2>\r<IMG SRC="/img/search/bottom-search-inside.gif" WIDTH="140" HEIGHT="25" alt="*">\r</TD>\r</TR>\r</TABLE>\r</TD>\r</TR>\r\r<TR>\r\t\t  <TD COLSPAN=2 align="right"><br>\r<a href="http://www.unbiased.co.uk/standardlifebank" target="_blank"> <img src="/img/findanifaWhite.gif" width=118 height=30 border=0 hspace=7 alt="Find an IFA - this link will open in a new window"></a></TD>\r</TR>\r\r<TR>\r<TD>\r<!-- start bookmark image -->\r<TABLE BORDER=0>\r<TR>\r<TD VALIGN="top"></TD>\r</TR>\r</TABLE>\r<!-- end bookmark image -->\r</TD>\r</TR>\r</TABLE>\r<!-- end site search box -->\r\r\r<br>\r</td>\r<td valign=top rowspan=2 width=27><img src="/img/insidestripc.gif" width=27 height=216 border=0 alt="*"></td>\r<td rowspan=2 valign=top>\r<table cellpadding=0 cellspacing=0 width=100% border=0>\r<tr valign="top" align="left">\r<td height=10 colspan=5>\r<!--<form name="bankLogin" action="tests/formPostChecker.php" method="post" target="popup" autocomplete="off" onSubmit="return fnBankLogin();">-->\r\r\r<table width="100%" border="0" cellspacing="0" cellpadding="0">\r<tr>\r<td bgcolor="#FFCC00" height="14" width="45"><img src="/img/space.gif" width="15" height="14" alt="*"></td>\r<td bgcolor="#FFCC00" height="14" width="352"><img src="/img/space.gif" width="15" height="14" alt="*"></td>\r<td height="14" bgcolor="#FFCC00" align="right" width="27"><img src="/img/space.gif" width="50" height="14" alt="*"></td>\r<td height="14" bgcolor="#FFCC00">\r<table width="421" border="0" cellspacing="0" cellpadding="0" height="14" align="right">\r<tr>\r<td width="421" bgcolor="#FFCC00"><img src="/img/insidetopc.gif" width=421 height=14 border=0 vspace="0" hspace="0" alt="*"></td>\r<td bgcolor="#FFE57F"><img src="/img/space.gif" width="15" height="14" alt="*"></td>\r</tr>\r</table>\r</td>\r</tr>\r<tr>\r<td bgcolor="#FFE57F" width="45" height=14><font size=1>&nbsp;</font></td>\r<td bgcolor="#FFE57F" width="352"><font size=1>&nbsp;</font></td>\r<td bgcolor="#FFE57F" valign="middle" width="27"><font size=1>&nbsp;</font></td>\r<td rowspan="2" bgcolor="#FFE57F" align="right" valign="middle" width="430">\r<form name="bankLogin" action="https://online.standardlifebank.com/cube/CubeApplicationServlet" method="post" autocomplete="off" target="popup" onSubmit="return fnBankLogin();"><input type="hidden" name="RequestID" value="LogonDetailsHandler">\r<table border="0" cellspacing="0" cellpadding="2" bgcolor="#FFE57F" width="415">\r<tr>\r<td align="right"><img src="/img/banking-logon.gif" width="93" height="12" alt="Banking Logon"></td>\r<td><img src="/img/logondots-vertical.gif" width="3" height="20" hspace=2 alt="*"></td>\r<td align="center"><img src="/img/reference-nt2.gif" width="49" height="11" alt="User ID/Customer Reference Number"></td>\r<td>\r<input size="6" type="text" name="UserId" class="searchbox2" style="font-size:8pt" alt="User ID">\r</td>\r<td align="center"><img src="/img/password-nt2.gif" width="65" height="11" alt="Password"></td>\r<td>\r<input size="6" type="password" name="UserPassword" class="searchbox2" style="font-size:8pt" alt="Password">\r</td>\r<td align="left" valign="bottom"><input type="image" src="/img/go.gif" alt="Go" width="18" height="18" border="0" name="image22">&nbsp;&nbsp;</td>\r</tr>\r</table>\r<input type="hidden" name="action" value="external">\r</form>\r</td>\r</tr>\r<tr>\r<td width="45" valign="top" align="left"><img src="/img/camcorner2.gif" width="13" height="15" alt="*"></td>\r<td width="352"><font size=1>&nbsp;</font></td>\r<td align="right" width="135" valign="top"><img src="/img/squarecama.gif" width=25 height="25" border=0 alt="*"></td>\r</tr>\r<tr>\r<td width="45"><font size=1>&nbsp;</font></td>\r<td width="352"><font size=1>&nbsp;</font></td>\r<td align="right" width="27"><font size=1>&nbsp;</font></td>\r<td align="right" valign="top">\r<table width="280" border="0" cellspacing="0" cellpadding="0">\r<tr>\r<td align="right" valign="top"><img src="/img/squarecamb.gif" width=20 height=19 border=0 alt="*"></td>\r<td background="/img/normaltablefix.gif" valign="top" align="center" alt="*">\r<form method=post onSubmit="return fnBankLogin2();" autocomplete="off" target="popup" action="https://online.standardlifebank.com/cube/CubeApplicationServlet" name="pagedata" class="nomargin">\r<input type="hidden" name="RequestID" value="StartHandler"><input type="hidden" name="action" value="newRegistration">\r<input type="image" name="register now" src="/img/register-nt2.gif" width="47" height="12" border="0" alt="Register">\r<img src="/img/homedot.gif" width="6" height="10" hspace=5 alt="*"><a href="/page.php?id_link=358"><img src="/img/help-nt.gif" width="25" height="12" border="0" alt="Help"></a><img src="/img/homedot.gif" width="6" height="10" hspace=5 alt="*"><a href="page.php?id_link=347"><img src="/img/terms&conditions-nt.gif" width="99" height="12" border="0" alt="Terms and Conditions"></a>\r</form>\r</td>\r</tr>\r</table>\r</td>\r</tr>\r</table>\r</td>\r</tr>\r<tr>\r<td width="5"><img src="/img/space.gif" width="15" height="14" alt="*"></td>\r<td valign=top>\r<table border=0>\r<tr>\r<td align=left valign=top><IMG SRC="/img/ourrates.gif" ALT="Our Rates" width="98" height="23" BORDER=0 ></td>\r</tr>\r<tr>\r<td align=left><span class="vsmallg"><a href="/">Home</A><img src="/img/indicator3.gif" width=9 height=6 border=0 alt="*">Rates</span></td>\r</tr>\r</table>\r\r<br>\r<span class="bodytextbold">Offering a fair deal to all our customers is one of our key objectives. That means we are committed to providing savings and mortgage products with competitive interest rates at all times.\r\r<br /><br />\r\rJust take a look for yourself.</span>\r\r<br /><br />\r\r<span class="bodytextbold">Mortgages</span>\r<UL>\r<LI><a href="#mort1"><span class="bodytext">Mortgage Products</span></a>\r</UL>\r\r\r\r<span class="bodytextbold">Savings</span>\r<UL>\r<LI><span class="bodytext"><a href="#rates2">Direct Access Savings Account for personal savers </a></span></LI>\r<LI><span class="bodytext"><a href="#rates3">50 Day Notice Account for personal savers</a></span></LI>\r<LI><span class="bodytext"><a href="#rates6">ISA Direct Access Savings Account for personal savers </a></span></LI>\r<LI><span class="bodytext"><a href="#rates7">ISA 50 Day Notice Account for personal savers</a></span></LI>\r<LI><span class="bodytext"><a href="#rates8">Direct Access Savings Account for business and client accounts</a></span></LI>\r<LI><span class="bodytext"><a href="#rates9">10 Day Notice Account for business and client accounts</a></span></LI>\r<LI><span class="bodytext"><a href="#rates5">Fixed Rate Bond </a></span></LI>\r<LI><span class="bodytext"><a href="#rates3"></a><a href="#rates4">Escalator Bond </a></span></LI>\r</ul>\r\r<span class="bodytextbold"><a href="/page.php?id_link=450">Our previous rates can be viewed here.</a></span>\r<br />\r<br />\r<a name="mort1"></a><span class="bodytextbold">Mortgage Products</span>\r<br />\r<span class="bodytext">(these rates are applicable to house purchase and remortgage)</span>\r<p>\r<table width=100% border=2 cellpadding=3 cellspacing=0 bordercolor=#003163>\r\r<tr valign="top" align="center" bgcolor=#003163>\r<th id="product" width="8%" valign=middle><SPAN CLASS="bodytextboldwhite">PRODUCT</SPAN></th>\r<th id="rate" width=39% colspan="3" valign=middle><SPAN CLASS="bodytextboldwhite">RATE</SPAN></th>\r<th id="loantovalue" width="12%" align="center" valign=middle bgcolor="#003163"><SPAN CLASS="bodytextboldwhite">% LOAN TO VALUE (LTV)</SPAN></th>\r<th id="redemptioncharges" width="25%" valign=middle><SPAN CLASS="bodytextboldwhite">REDEMPTION CHARGES</SPAN></th>\r<th id="information" width="16%" align="center" valign=middle><SPAN CLASS="bodytextboldwhite">INFO</SPAN></th>\r</tr>\r\r<tr valign="top">\r<td header="product" width="8%" class="mortgagetablemaize">Freestyle variable - 6 month discount</td>\r<td header="rate" align="center" class="tablepaleyellow2" width="19%">\r\t<span class="blacktextbold">Up to 90% LTV</span>\r\t<br />\r\t<br />\r\t<span class="redbold">3.24%</span><br />\r\t<span class="blacktext"> 6 month discounted variable</span><br />\r\t<span class="blacktextsmall">(includes 6 months\' discount of 1.76% off our Freestyle standard variable rate of 5.0%<span class="redbold"></span>)</span>\r\t<br />\r\t<br />\r\t<span class="redbold"><u>(APR 5.1%<span class="redbold"></span> variable)</u></span></td>\r<td header="rate" align="center" colspan="2" class="tablepaleyellow2"><span class="blacktextbold"> 90.01-95% LTV</span><br />\r\t<br />\r\t<span class="redbold">3.44%</span><span class="redbold"></span><br />\r\t<span class="blacktext">6 month discounted variable</span><br />\r\t<span class="blacktextsmall">(includes 6 months\' discount of 1.76% off our Freestyle standard variable rate plus 0.2%)</span><br />\r\t<br />\r\t<span class="redbold"><u>(APR 5.3% variable)</u></span></td>\r<td header="loantovalue" class="tablepaleyellow2" width="12%" align="center"><span class="blacktextbold"> up to 95%</span></td>\r<td header="redemptioncharges" class="tablepaleyellow2" width="25%"><span class="blacktextsmall">Equivalent to three months\' gross interest at the variable rate you would be paying after the discount period, on the initial sum advanced if mortgage is redeemed within the first 12 months.</span></td>\r<td header="information" class="tablepaleyellow" width="16%" align="center"><bodytext><A HREF="page.php?id_link=495" onClick="windowOpenSized(\'popup\', 380, 450)" TARGET="popup">Legal Information</a><br />\r\t<br />\r\t<a href="/page.php?id_link=517">Charges</a>\r<br />\r\t<br />\r\t<a href="http://www.standardlifebank.co.uk/MortCalc/consumer95decide.jsp" target="MortWin" onClick="openWin3(\'http://www.standardlifebank.co.uk/MortCalc/consumer95decide.jsp\',\'MortWin\')">Calculator</A>\r</td>\r</tr>\r\r\r<tr valign="top">\r<td header="product" width="8%" class="mortgagetablemaize"><bodytext>Freestyle variable - 1 year discount</bodytext></td>\r<td header="rate" class="tablepaleyellow2" align="center" width="19%"><span class="blacktextbold">Up to 90% LTV</span><br />\r\t<br />\r\t<span class="redbold">4.10%</span><br />\r\t<span class="blacktext">1 year discounted variable</span><br />\r\t<span class="blacktextsmall">(includes 1 years\' discount of 0.9% off our Freestyle standard variable rate of 5.0%)</span><br />\r\t<br />\r\t<span class="redbold"><U>(APR 5.1% variable)</U></span></td>\r<td header="rate" align="center"class="tablepaleyellow2" colspan="2"><span class="blacktextbold">90.01-95% LTV</span><br />\r\t<br />\r\t<span class="redbold">4.30%</span><br />\r\t<span class="blacktext">1 year discounted variable</span><br />\r\t<span class="blacktextsmall">(includes 1 years\' discount of 0.9% off our Freestyle standard variable rate plus 0.2%)</span><br />\r\t<br />\r\t<span class="redbold"><U>(APR 5.3% variable)</U></span></td>\r<td header="loantovalue" class="tablepaleyellow2"  width="12%" align="center"><span class="blacktextbold">up to 95%</span></td>\r<td header="redemptioncharges" class="tablepaleyellow2"  width="25%"><span class="blacktextsmall">Equivalent to three months\' gross interest at the variable rate you would be paying after the discount period, on the initial sum advanced if mortgage is redeemed within the first 12 months.</span></td>\r<td header="information" class="tablepaleyellow"  width="16%" align="center"><bodytext><A HREF="page.php?id_link=532" onClick="windowOpenSized(\'popup\', 380, 450)" TARGET="popup">Legal Information</a><br />\r\t<br />\r\t<a href="/page.php?id_link=517">Charges</a>\r\t<br />\r\t<br />\r\t<a href="http://www.standardlifebank.co.uk/MortCalc/consumer95decide.jsp" target="MortWin" onClick="openWin3(\'http://www.standardlifebank.co.uk/MortCalc/consumer95decide.jsp\',\'MortWin\')">Calculator</A></td>\r</tr>\r\r\r\r<tr valign="top">\r<td header="product" width="8%" class="mortgagetablemaize"><bodytext>Freestyle variable - 2 year discount</bodytext></td>\r<td header="rate" class="tablepaleyellow2" align="center" width="19%"><span class="blacktextbold">Up to 90% LTV</span><br />\r\t<br />\r\t<span class="redbold">4.39%</span><br />\r\t<span class="blacktext">2 year discounted variable</span><br />\r\t<span class="blacktextsmall">(includes 2 year discount of 0.61% off our Freestyle standard variable rate of 5.0%<span class="redbold"></span>)</span><br />\r\t<br />\r\t<span class="redbold"><u>(APR 5.1% variable)</u></span></td>\r<td header="rate" align="center"class="tablepaleyellow2" colspan="2"><span class="blacktextbold">90.01-95% LTV</span><br />\r\t<br />\r\t<span class="redbold">4.59%</span><br />\r\t<span class="blacktext">2 year discounted variable</span><br />\r\t<span class="blacktextsmall">(includes 2 year discount of 0.61% off our Freestyle standard variable rate plus 0.2%)</span><br />\r\t<br />\r\t<span class="redbold"><u>(APR 5.3% variable)</u></span></td>\r<td header="loantovalue" class="tablepaleyellow2"  width="12%" align="center"><span class="blacktextbold">up to 95%</span></td>\r<td header="redemptioncharges" class="tablepaleyellow2"  width="25%"><span class="blacktextsmall">Equivalent to five months\xc2\x92 gross interest at the variable rate you would be paying after the discount period, on the initial sum advanced if mortgage is redeemed within the first 2 years.</span></td>\r<td header="information" class="tablepaleyellow"  width="16%" align="center"><bodytext><A HREF="page.php?id_link=644" onClick="windowOpenSized(\'popup\', 380, 450)" TARGET="popup">Legal Information</a><br />\r\t<br />\r\t<a href="/page.php?id_link=517">Charges</a>\r\t<br />\r\t<br />\r\t<a href="http://www.standardlifebank.co.uk/MortCalc/consumer95decide.jsp" target="MortWin" onClick="openWin3(\'http://www.standardlifebank.co.uk/MortCalc/consumer95decide.jsp\',\'MortWin\')">Calculator</A></td>\r</tr>\r\r\r<tr valign="top">\r<td header="product" width="8%" class="mortgagetablemaize"><bodytext>Freestyle variable - 3 year discount</bodytext></td>\r<td header="rate" class="tablepaleyellow2" align="center" width="19%"><span class="blacktextbold">Up to 90% LTV</span><br />\r\t<br />\r\t<span class="redbold">4.55%</span><br />\r\t<span class="blacktext">3 year discounted variable</span><br />\r\t<span class="blacktextsmall">(includes 3 year discount of 0.45% off our Freestyle standard variable rate of 5.0%<span class="redbold"></span>)</span><br />\r\t<br />\r\t<span class="redbold"><u>(APR 5.1% variable)</u></span></td>\r<td header="rate" align="center"class="tablepaleyellow2" colspan="2"><span class="blacktextbold">90.01-95% LTV</span><br />\r\t<br />\r\t<span class="redbold">4.75%</span><br />\r\t<span class="blacktext">3 year discounted variable</span><br />\r\t<span class="blacktextsmall">(includes 3 year discount of 0.45% off our Freestyle standard variable rate plus 0.2%)</span><br />\r\t<br />\r\t<span class="redbold"><u>(APR 5.3% variable)</u></span></td>\r<td header="loantovalue" class="tablepaleyellow2"  width="12%" align="center"><span class="blacktextbold">up to 95%</span></td>\r<td header="redemptioncharges" class="tablepaleyellow2"  width="25%"><span class="blacktextsmall">Equivalent to five months\' gross interest at the variable rate you would be paying after the discount period, on the initial sum advanced if mortgage is redeemed within the first 3 years.</span></td>\r<td header="information" class="tablepaleyellow"  width="16%" align="center"><bodytext><A HREF="page.php?id_link=533" onClick="windowOpenSized(\'popup\', 380, 450)" TARGET="popup">Legal Information</a><br />\r\t<br />\r\t<a href="/page.php?id_link=517">Charges</a>\r\t<br />\r\t<br />\r\t<a href="http://www.standardlifebank.co.uk/MortCalc/consumer95decide.jsp" target="MortWin" onClick="openWin3(\'http://www.standardlifebank.co.uk/MortCalc/consumer95decide.jsp\',\'MortWin\')">Calculator</A></td>\r</tr>\r\r\r<tr valign="top">\r<td header="product" width="8%" class="mortgagetablemaize"><bodytext>Freestyle variable - 5 year discount<BR><BR><I>nb minimum loan amount \xc5\x81100,000</I></bodytext></td>\r<td header="rate" class="tablepaleyellow2" align="center" width="19%"><span class="blacktextbold">Up to 90% LTV</span><br />\r\t<br />\r\t<span class="redbold">4.56%</span><br />\r\t<span class="blacktext">5 year discounted variable</span><br />\r\t<span class="blacktextsmall">(includes 5 year discount of 0.44% off our Freestyle standard variable rate of 5.0%)<span class="redbold"></span></span><br />\r\t<br />\r\t<span class="redbold"><u>(APR 5.0% variable)</u></span></td>\r<td header="rate" align="center"class="tablepaleyellow2" colspan="2"><span class="blacktextbold">90.01-95% LTV</span><br />\r\t<br />\r\t<span class="redbold">4.76%</span><br />\r\t<span class="blacktext">5 year discounted variable</span><br />\r\t<span class="blacktextsmall">(includes 5 year discount of 0.44% off our Freestyle standard variable rate plus 0.2%)</span><br />\r\t<br />\r\t<span class="redbold"><u>(APR 5.2% variable)</u></span></td>\r<td header="loantovalue" class="tablepaleyellow2"  width="12%" align="center"><span class="blacktextbold">up to 95%</span></td>\r<td header="redemptioncharges" class="tablepaleyellow2"  width="25%"><span class="blacktextsmall">Equivalent to three months\xc2\x92 gross interest at the variable rate you would be paying after the discount period, on the initial sum advanced if mortgage is redeemed with the first 5 years.</span></td>\r<td header="information" class="tablepaleyellow"  width="16%" align="center"><bodytext><A HREF="page.php?id_link=531" onClick="windowOpenSized(\'popup\', 380, 450)" TARGET="popup">Legal Information</a><br />\r\t<br />\r\t<a href="/page.php?id_link=517">Charges</a>\r\t<br />\r\t<br />\r\t<a href="http://www.standardlifebank.co.uk/MortCalc/consumer95decide.jsp" target="MortWin" onClick="openWin3(\'http://www.standardlifebank.co.uk/MortCalc/consumer95decide.jsp\',\'MortWin\')">Calculator</A></td>\r</tr>\r\r<tr valign="top">\r<td header="product" width="8%" class="mortgagetablemaize"><bodytext>Freestyle fixed until 31/12/04</bodytext></td>\r<td header="rate" class="tablepaleyellow2"  align="center" width="19%"><span class="blacktextbold">Up to 90% LTV</span><br />\r\t<br />\r\t<span class="redbold">5.85%</span><br />\r\t<span class="blacktext"></span><br />\r\t<br />\r\t<span class="redbold"><u>(APR 5.3% variable)</u></span></td>\r<td header="rate" align="center"class="tablepaleyellow2"  colspan="2"><span class="blacktextbold">90.01-95% LTV</span><br />\r\t<br />\r\t<span class="redbold">6.05%</span><br />\r\t<span class="blacktext"></span><br />\r\t<br />\r\t<span class="redbold"><u>(APR 5.5% variable)</u></span></td>\r<td header="loantovalue" class="tablepaleyellow2"  width="12%" align="center"><span class="blacktextbold">up to 95%</span></td>\r<td header="redemptioncharges" class="tablepaleyellow2"  width="25%"><span class="blacktextsmall">Year 1 = 5 months\'<br />Year 2 = 4 "<br />Year 3 = 3 "<br />gross interest at the fixed rate on amount  redeemed.</span></td>\r<td header="information" class="tablepaleyellow"  width="16%" align="center"><bodytext><A HREF="page.php?id_link=519" onClick="windowOpenSized(\'popup\', 380, 450)" TARGET="popup">Legal Information</a><br />\r\t<br />\r\t<a href="/page.php?id_link=517">Charges</a>\r\t<br />\r\t<!-- <br />\r\t<a href="http://www.standardlifebank.co.uk/MortCalc/consumer95decide.jsp" target="MortWin" onClick="openWin3(\'http://www.standardlifebank.co.uk/MortCalc/consumer95decide.jsp\',\'MortWin\')">Calculator</A> --></td>\r</tr>\r\r\r<tr id="product" valign="top">\r<td width="8%" class="mortgagetablemaize"><bodytext>Freestyle fixed until 15/02/07</bodytext></td>\r<td header="rate" class="tablepaleyellow2"  align="center" width="19%"><span class="blacktextbold">Up to 90% LTV</span><br />\r\t<br />\r\t<span class="redbold">5.89%</span><br />\r\t<span class="blacktext"></span><br />\r\t<br />\r\t<span class="redbold"><u>(APR 5.5% variable)</u></span></td>\r<td header="rate" align="center"class="tablepaleyellow2"  colspan="2"><span class="blacktextbold">90.01-95% LTV</span><br />\r\t<br />\r\t<span class="redbold">6.09%</span><br />\r\t<span class="blacktext"></span><br />\r\t<br />\r\t<span class="redbold"><u>(APR 5.7% variable)</u></span></td>\r<td header="loantovalue" class="tablepaleyellow2"  width="12%" align="center"><span class="blacktextbold">up to 95%</span></td>\r<td header="redemptioncharges" class="tablepaleyellow2"  width="25%"><span class="blacktextsmall">Year 1 = 7 months\'<br />Year 2 = 6 "<br />Year 3 = 6 "<br />Year 4 = 5 "<br />Year 5 = 4 "<br />gross interest at the fixed rate on amount  redeemed.</span></td>\r<td header="information" class="tablepaleyellow"  width="16%" align="center"><bodytext><A HREF="page.php?id_link=531" onClick="windowOpenSized(\'popup\', 380, 450)" TARGET="popup">Legal Information</a><br />\r\t<br />\r\t<a href="/page.php?id_link=517">Charges</a>\r\t<br />\r\t<br />\r\t<a href="http://www.standardlifebank.co.uk/MortCalc/consumer95decide.jsp" target="MortWin" onClick="openWin3(\'http://www.standardlifebank.co.uk/MortCalc/consumer95decide.jsp\',\'MortWin\')">Calculator</A></td>\r</tr>\r\r<tr valign="top">\r<td header="product" width="8%" class="mortgagetablemaize"><bodytext>Freestyle fixed until 15/11/08</bodytext></td>\r<td header="rate" class="tablepaleyellow2"  align="center" width="19%"><span class="blacktextbold">Up to 90% LTV</span><br />\r\t<br />\r\t<span class="redbold">5.99%</span><br />\r\t<span class="blacktext"></span><br />\r\t<br />\r\t<span class="redbold"><u>(APR 5.6% variable)</u></span></td>\r<td header="rate" align="center"class="tablepaleyellow2"  colspan="2"><span class="blacktextbold">90.01-95% LTV</span><br />\r\t<br />\r\t<span class="redbold">6.19%</span><br />\r\t<span class="blacktext"></span><br />\r\t<br />\r\t<span class="redbold"><u>(APR 5.8% variable)</u></span></td>\r<td header="loantovalue" class="tablepaleyellow2"  width="12%" align="center"><span class="blacktextbold">up to 95%</span></td>\r<td header="redemptioncharges" class="tablepaleyellow2"  width="25%"><span class="blacktextsmall">Year 1 = 10 months\'<br />Year 2 = 9 "<br />Year 3 = 8 "<br />Year 4 = 8 "<br />Year 5 = 7 "<br />Year 6 = 6 "<br />Year 7 = 5 "<br />gross interest at the fixed rate on amount  redeemed.</span></td>\r<td header="information" class="tablepaleyellow"  width="16%" align="center"><bodytext><A HREF="page.php?id_link=594" onClick="windowOpenSized(\'popup\', 380, 450)" TARGET="popup">Legal Information</a><br />\r\t<br />\r\t<a href="/page.php?id_link=517">Charges</a>\r<!--\t<br />\r\t<br />\r\t<a href="http://www.standardlifebank.co.uk/MortCalc/consumer95decide.jsp" target="MortWin" onClick="openWin3(\'http://www.standardlifebank.co.uk/MortCalc/consumer95decide.jsp\',\'MortWin\')">Calculator</A>\r!-->\r</td>\r</tr>\r\r<tr valign="top">\r<td header="product" width="8%" class="mortgagetablemaize"><bodytext>Freestyle fixed until 01/03/12</bodytext></td>\r<td header="rate" class="tablepaleyellow2"  align="center" width="19%"><span class="blacktextbold">Up to 90% LTV</span><br />\r<br />\r<span class="redbold">5.99%</span><br />\r<span class="blacktext"></span><br />\r<br />\r<span class="redbold"><u>(APR 5.8% variable)</u></span></td>\r<td header="rate" align="center"class="tablepaleyellow2"  colspan="2"><span class="blacktextbold">90.01-95% LTV</span><br />\r<br />\r<span class="redbold">6.19%</span><br />\r<span class="blacktext"></span><br />\r<br />\r<span class="redbold"><u>(APR 6.0% variable)</u></span></td>\r<td header="loantovalue" class="tablepaleyellow2"  width="12%" align="center"><span class="blacktextbold">up to 95%</span></td>\r<td header="redemptioncharges" class="tablepaleyellow2"  width="25%"><span class="blacktextsmall">Year 1 = 13 months\'<br />Year 2 = 13 "<br />Year 3 = 12 "<br />Year 4 = 12 "<br />Year 5 = 12 "<br />Year 6 = 10 "<br />Year 7 = 9 "<br />Year 8 = 8 "<br />Year 9 = 7 "<br />Year 10 = 6 "<br />gross interest at the fixed rate on amount redeemed.</span></td>\r<td header="information" class="tablepaleyellow"  width="16%" align="center"><bodytext><A HREF="page.php?id_link=594" onClick="windowOpenSized(\'popup\', 380, 450)" TARGET="popup">Legal Information</a><br />\r<br />\r<a href="/page.php?id_link=517">Charges</a>\r<!--\r<br />\r<br />\r<a href="http://www.standardlifebank.co.uk/MortCalc/consumer95decide.jsp" target="MortWin" onClick="openWin3(\'http://www.standardlifebank.co.uk/MortCalc/consumer95decide.jsp\',\'MortWin\')">Calculator</A>\r!-->\r</td>\r</tr>\r\r<tr valign="top">\r<td header="product" width="8%" class="mortgagetablemaize">\r<bodytext>Freestyle - 25 year fixed</bodytext><br><br>\r<span class="redbold2">nb.<br>minimum loan amount \xc5\x8175,000</span><br><br>\r<span class="textsmall">Please note, the 25 year fixed rate mortgage is capital and interest only</span></td>\r<td header="rate" class="tablepaleyellow2" align="center"><span class="blacktextbold">Up to 90% LTV</span><br><br>\r<span class="redbold">6.49%<br></span>\r<br><br>\r<span class="redbold"><u>(APR 6.8% variable)</u></span></td>\r<td header="rate" align="center"class="tablepaleyellow2"  colspan="2"><span class="blacktextbold">90.01-95% LTV</span><br><br>\r<span class="redbold">6.69%<br></span>\r<br>\r<br>\r<span class="redbold"><u>(APR 7% variable)</u></span></td>\r<td header="loantovalue" class="tablepaleyellow2" width="12%" align="center"><span class="blacktextbold">up to 95%</span></td>\r<td header="redemptioncharges" class="tablepaleyellow2" width="25%"><span class="blacktextsmall">Year 1 = 15 months\'<br>Year  2 = 15 "<br>Year 3 = 14 "<br>Year 4 = 13 "<br>Year 5 = 13 "<br>Year 6 = 12 "<br>Year 7 = 10 "<br>Year 8 = 9 "<br>Year 9 = 8 "<br>Year 10 = 7 "<br>gross interest at the fixed rate on the amount redeemed.</span></td>\r<td header="information" class="tablepaleyellow" width="16%" align="center"><bodytext><A HREF="page.php?id_link=637" onClick="windowOpenSized(\'popup\', 380, 450)" TARGET="popup">Legal Information</a><br>\r<br>\r<a href="/page.php?id_link=517">Charges</a>\r<br>\r<br>\r</td>\r</tr>\r\r<tr valign="top">\r<td header="product" width="8%" class="mortgagetablemaize"><bodytext>Capital Reward - 1% bonus every 2 years</bodytext></td>\r<td header="rate" class="tablepaleyellow2" align="center"><span class="blacktextbold">Up to 90% LTV</span><br />\r\t<br />\r\t<span class="redbold">5.00%</span><br />\r\t<span class="blacktext">variable</span><br />\r\t<br /><span class="redbold"><u>(APR 4.7% variable)</u></span></td>\r<td header="rate" align="center"class="tablepaleyellow2"  colspan="2"><span class="blacktextbold">90.01-95% LTV</span><br />\r\t<br />\r\t<span class="redbold">5.20%</span><br />\r\t<span class="blacktext">variable</span><br />\r\t<br />\r\t<span class="redbold"><u>(APR 4.9% variable)</u></span></td>\r<td header="loantovalue" class="tablepaleyellow2" width="12%" align="center"><span class="blacktextbold">up to 95%</span></td>\r<td header="redemptioncharges" class="tablepaleyellow2" width="25%"><span class="blacktextsmall"> Payable if you redeem your mortgage at any time after the first two years.<br />Equivalent to twice the amount of the most recent bonus that we have paid you.</span></td>\r<td header="information" class="tablepaleyellow" width="16%" align="center"><bodytext><A HREF="page.php?id_link=510" onClick="windowOpenSized(\'popup\', 380, 450)" TARGET="popup">Legal Information</a><br />\r\t<br />\r\t<a href="/page.php?id_link=517">Charges</a>\r\t<br />\r\t<br />\r\t<a href="http://www.standardlifebank.co.uk/MortCalc/capitalrewarddecide.jsp" target="MortWin" onClick="openWin3(\'http://www.standardlifebank.co.uk/MortCalc/capitalrewarddecide.jsp\',\'MortWin\')">Calculator</a></td>\r</tr>\r\r\r<tr valign="top">\r<td header="product" width="8%" class="mortgagetablemaize"><span class="redbold2">nb.  This product is currently unavailable</span><br><br><bodytext>Future-perfect - 25 year capped<br /><br /><A HREF="page.php?id_link=595" onClick="windowOpenSized(\'popup\', 350, 300)" TARGET="popup">How it works</a></bodytext></td>\r<td header="rate" class="tablepaleyellow2" align="center"><span class="blacktextbold">Up to 90% LTV</span><br /><br />\r\t<span class="redbold">5.42%</span><span class="blacktext"> is the<br />current variable rate payable for existing customers.<br /></span>\r\t<br /><br />\r\t<span class="redbold"><u>(APR 5.7% variable)</u></span></td>\r<td header="rate" align="center"class="tablepaleyellow2"  colspan="2"><span class="blacktextbold">90.01-95% LTV</span><br /><br />\r\t<span class="redbold">5.62%</span><span class="blacktext"> is the<br />current variable rate payable for existing customers.<br /></span>\r\t<br />\r\t<br />\r\t<span class="redbold"><u>(APR 5.9% variable)</u></span></td>\r<td header="loantovalue" class="tablepaleyellow2" width="12%" align="center"><span class="blacktextbold">up to 95%</span></td>\r<td header="redemptioncharges" class="tablepaleyellow2" width="25%"><span class="blacktextsmall">Year 1 = 10 months\'<br />Year  2 = 8 "<br />Year 3 = 7 "<br />Year 4 = 6 "<br />Year 5 = 5 "<br />gross interest at the capped rate on the amount redeemed.</span></td>\r<td header="information" class="tablepaleyellow" width="16%" align="center"><bodytext><A HREF="page.php?id_link=497" onClick="windowOpenSized(\'popup\', 380, 450)" TARGET="popup">Legal Information</a><br />\r\t<br />\r\t<a href="/page.php?id_link=517">Charges</a>\r\t<br />\r\t<br />\r\t<!--<a href="http://www.standardlifebank.co.uk/MortCalc/futureperfectdecide2.jsp" target="MortWin" onClick="openWin3(\'http://www.standardlifebank.co.uk/MortCalc/futureperfectdecide2.jsp\',\'MortWin\')">Calculator</a>--></td>\r</tr>\r\r\r\r\r\r<tr valign="top">\r<td header="product" width="8%" class="mortgagetablemaize"><bodytext>Buy to Let variable</bodytext></td>\r<td header="rate" width="13%" class="tablepaleyellow2" align="center"><span class="blacktextbold">Up to<br />50% LTV</span>\r\t<br /><br /><span class="redbold">4.24%</span><br />\r\t<span class="blacktext">6 month discounted variable</span><br />\r\t<span class="blacktextsmall">(includes 1% discount off our Buy to Let variable rate of 5.24%<span class="redbold"></span>)</span><br /><br />\r\t<span class="redbold"><u>(APR 5.4% variable)</u></span></td>\r<td header="rate" width="13%" class="tablepaleyellow2" align="center"><span class="blacktextbold">50.01<br />to 65% LTV</span><br /><br /><span class="redbold">4.49%</span><br />\r\t<span class="blacktext">6 month discounted variable</span><br />\r\t<span class="blacktextsmall">(includes 1% discount off our Buy to Let variable rate of 5.49%<span class="redbold"></span>)</span><br /><br />\r\t<span class="redbold"><u>(APR 5.7% variable)</u></span></td>\r<td header="rate" width="13%" class="tablepaleyellow2" align="center"><span class="blacktextbold">65.01<br />to 80% LTV</span><br /><br /><span class="redbold">4.74%</span><br />\r\t<span class="blacktext">6 month discounted variable</span><br />\r\t<span class="blacktextsmall">(includes 1% discount off our Buy to Let variable rate of 5.74%<span class="redbold"></span>)</span><br /><br />\r\t<span class="redbold"><u>(APR 5.9% variable)</u></span></td>\r<td header="loantovalue" class="tablepaleyellow2" align="center" width="12%"><span class="blacktextbold">up to 80%</span></td>\r<td header="redemptioncharges" class="tablepaleyellow2" width="25%"><span class="blacktextsmall">Equivalent to three months\' gross interest at the tiered Buy to Let variable rate, on the initial sum advanced if mortgage is redeemed within the first 12 months.</span></td>\r<td header="information" class="tablepaleyellow" width="16%" align="center"><bodytext><A HREF="page.php?id_link=514" onClick="windowOpenSized(\'popup\', 380, 450)" TARGET="popup">Legal Information</a>\r\t<br />\r\t<br />\r\t<a href="/page.php?id_link=517">Charges</a></td>\r</tr>\r\r<tr valign="top">\r<td header="product" width="8%" class="mortgagetablemaize"><bodytext>Buy to Let 3 year Fixed Rate<br /><br /></bodytext></td>\r<td header="rate" colspan="3" class="tablepaleyellow2" align="center"><span class="blacktextbold">Up to<br />80% LTV</span>\r\t<br />\r\t<br />\r\t<span class="redbold"> 6.10%</span>\r\t<br />\r\t<table border="0" width="80%">\r\t<tr>\r\t<td WIDTH="50%" ALIGN="left" colspan="2"><span class="blacktextbold"><U>LTV</U></span></td>\r\t</tr>\r\r\t<tr>\r\t<td ALIGN="left"><span class="blacktext"><50%</span></td>\r\t<td ALIGN="right"><span class="blacktextbold">5.7% APR</span></td>\r\t</tr>\r\r\t<tr>\r\t<td ALIGN="left"><span class="blacktext">50.01% - 65%</span></td>\r\t<td ALIGN="right"><span class="blacktextbold">5.9% APR</span></td>\r\t</tr>\r\r\t<tr>\r\t<td ALIGN="left"><span class="blacktext">65.01% - 80%</span></td>\r\t<td ALIGN="right"><span class="blacktextbold">6.1% APR</span></td>\r\t</tr>\r\t</table></td>\r<td header="loantovalue" class="tablepaleyellow2" width="12%" align="center"><span class="blacktextbold">up to 80%</span></td>\r<td header="redemptioncharges" class="tablepaleyellow2" width="25%"><span class="blacktextsmall">Year 1 = 5 months\'<br />Year  2 = 4 "<br />Year 3 = 3 "<br />gross interest at the fixed rate on amount redeemed.</span></td>\r<td header="information" class="tablepaleyellow" width="16%" align="center"><bodytext><A HREF="page.php?id_link=514" onClick="windowOpenSized(\'popup\', 380, 450)" TARGET="popup">Legal Information</a>\r\t<br />\r\t<br />\r\t<a href="/page.php?id_link=517">Charges</a></td>\r</tr>\r\r<tr valign="top">\r<td header="product" width="8%" class="mortgagetablemaize"><bodytext>Buy to Let 5 year Fixed Rate<br /><br /></bodytext></td>\r<td header="rate" colspan="3" class="tablepaleyellow2" align="center"><span class="blacktextbold">Up to<br />80% LTV</span>\r\t<br />\r\t<br />\r\t<span class="redbold">6.15%</span>\r\t<br />\r\t<table border="0" width="80%">\r\t<tr>\r\t<td WIDTH="50%" ALIGN="left" colspan="2"><span class="blacktextbold"><U>LTV</U></span></td>\r\t</tr>\r\r\t<tr>\r\t<td ALIGN="left"><span class="blacktext"><50%</span></td>\r\t<td ALIGN="right"><span class="blacktextbold">5.8% APR</span></td>\r\t</tr>\r\r\t<tr>\r\t<td ALIGN="left"><span class="blacktext">50.01% - 65%</span></td>\r\t<td ALIGN="right"><span class="blacktextbold">6.0% APR</span></td>\r\t</tr>\r\r\t<tr>\r\t<td ALIGN="left"><span class="blacktext">65.01% - 80%</span></td>\r\t<td ALIGN="right"><span class="blacktextbold">6.1% APR</span></td>\r\t</tr>\r\t</table></td>\r<td header="loantovalue" class="tablepaleyellow2" width="12%" align="center"><span class="blacktextbold">up to 80%</span></td>\r<td header="redemptioncharges" class="tablepaleyellow2" width="25%"><span class="blacktextsmall">Year 1 = 7 months\'<br />Year  2 = 6 "<br />Year 3 = 6 "<br />Year 4 = 5 "<br />Year 5 = 4 "<br />gross interest at the fixed rate on amount redeemed.</span></td>\r<td header="information" class="tablepaleyellow" width="16%" align="center"><bodytext><A HREF="page.php?id_link=514" onClick="windowOpenSized(\'popup\', 380, 450)" TARGET="popup">Legal Information</a><br />\r\t<br />\r\t<a href="/page.php?id_link=517">Charges</a></td>\r</tr>\r</table>\r<span class="vsmalli">Interest rates effective from 1 May 2002</span>\r<br />\r<br />\r<TABLE CELLPADDING=0 CELLSPACING=0 BORDER=0 ALIGN=RIGHT>\r<TR>\r<TD><span class=VSMALLBOLD><a href="#top">Back to top</a>\xc2\xa0\xc2\xa0\xc2\xa0</VSMALLBOLD></TD>\r<TD><a href="#top"><IMG SRC="/img/top.gif" BORDER=0 WIDTH=10 HEIGHT=10 alt="back to top"></A></TD>\r</TR>\r</TABLE>\r<BR><BR>\r\r<TABLE CELLPADDING=3 CELLSPACING=0 BORDER=0 WIDTH=100%>\r<tr>\r<td background="img/smallyellow.gif" alt="*"><img src="img/space.gif" height=5 alt="*"></td>\r</tr>\r</TABLE>\r\r<br />\r\r<span class="bodytextbold">Savings Products</span>\r<a name="rates2"></a>\r<br />\r<br />\r<span class="bodytextbold">Direct Access Savings Account for personal savers</span>\r<br />\r<br />\r<table width=100% border=2 cellpadding=3 cellspacing=0 bordercolor=#003163>\r\r<tr>\r<th id="balance" rowspan=2 CLASS="bodytextboldwhite" align=center bgcolor="#003163">Balance</th>\r<th id="interestyearly" colspan=2 CLASS="bodytextboldwhite" align=center bgcolor="#003163">Interest paid yearly</th>\r<th id="interestmonthly" colspan=3 CLASS="bodytextboldwhite" align=center bgcolor="#003163">Interest paid monthly</th>\r</tr>\r\r<tr>\r<td header="interestyearly" CLASS="bodytextboldwhite" align=center bgcolor="#003163">Gross/AER %</td>\r<td header="interestyearly" CLASS="bodytextboldwhite" align=center bgcolor="#003163">Net %</td>\r<td header="interestmonthly" CLASS="bodytextboldwhite" align=center bgcolor="#003163">Gross %</td>\r<td header="interestmonthly" CLASS="bodytextboldwhite" align=center bgcolor="#003163">AER %</td>\r<td header="interestmonthly" CLASS="bodytextboldwhite" align=center bgcolor="#003163">Net%</td>\r</tr>\r\r<tr>\r<td header="balance" CLASS="tablemaize" align=center>\xc5\x811 - \xc5\x814,999</td>\r<td header="interestyearly" CLASS="tablepaleyellow" align=center>3.60</td>\r<td header="interestyearly" CLASS="tablepaleyellow" align=center>2.88</td>\r<td header="interestmonthly" CLASS="tablepaleyellow" align=center>3.54</td>\r<td header="interestmonthly" CLASS="tablepaleyellow" align=center>3.60</td>\r<td header="interestmonthly" CLASS="tablepaleyellow" align=center>2.83</td>\r</tr>\r\r<tr>\r<td header="balance" CLASS="tablemaize" align=center>\xc5\x815,000 - \xc5\x8111,999</td>\r<td header="interestyearly" CLASS="tablepaleyellow" align=center>3.65</td>\r<td header="interestyearly" CLASS="tablepaleyellow" align=center>2.92</td>\r<td header="interestmonthly" CLASS="tablepaleyellow" align=center>3.59</td>\r<td header="interestmonthly" CLASS="tablepaleyellow" align=center>3.65</td>\r<td header="interestmonthly" CLASS="tablepaleyellow" align=center>2.87</td>\r</tr>\r\r<tr>\r<td header="balance" CLASS="tablemaize" align=center>\xc5\x8112,000 - \xc5\x8129,999</td>\r<td header="interestyearly" CLASS="tablepaleyellow" align=center>3.73</td>\r<td header="interestyearly" CLASS="tablepaleyellow" align=center>2.98</td>\r<td header="interestmonthly" CLASS="tablepaleyellow" align=center>3.66</td>\r<td header="interestmonthly" CLASS="tablepaleyellow" align=center>3.73</td>\r<td header="interestmonthly" CLASS="tablepaleyellow" align=center>2.93</td>\r</tr>\r\r<tr>\r<td header="balance" CLASS="tablemaize" align=center>\xc5\x8130,000 - \xc5\x8159,999</td>\r<td header="interestyearly" CLASS="tablepaleyellow" align=center>3.75</td>\r<td header="interestyearly" CLASS="tablepaleyellow" align=center>3.00</td>\r<td header="interestmonthly" CLASS="tablepaleyellow" align=center>3.68</td>\r<td header="interestmonthly" CLASS="tablepaleyellow" align=center>3.75</td>\r<td header="interestmonthly" CLASS="tablepaleyellow" align=center>2.94</td>\r</tr>\r\r<tr>\r<td header="balance" CLASS="tablemaize" align=center>\xc5\x8160,000+</td>\r<td header="interestyearly" CLASS="tablepaleyellow" align=center>3.80</td>\r<td header="interestyearly" CLASS="tablepaleyellow" align=center>3.04</td>\r<td header="interestmonthly" CLASS="tablepaleyellow" align=center>3.73</td>\r<td header="interestmonthly" CLASS="tablepaleyellow" align=center>3.80</td>\r<td header="interestmonthly" CLASS="tablepaleyellow" align=center>2.98</td>\r</tr>\r</table>\r\r<table width="95%" border="0" cellpadding="0" cellspacing="0">\r<tr>\r<td height="25" colspan="2">\r<A HREF="page.php?id_link=498" onClick="windowOpenSized(\'popup\', 380, 450)" TARGET="popup">\r<DIV class="VSMALLBOLD" ALIGN="RIGHT" STYLE="position: relative; left:">\rLegal Information<IMG SRC="/img/gosmallyellow.gif" BORDER="0" WIDTH="10" HSPACE="2" HEIGHT="10" ALIGN="BOTTOM" alt="*"></DIV>\r\r</a>\r</td></tr>\r</table>\r<br />\r\r<span class="vsmalli">\rInterest rates effective from 15 November 2001\r</span>\r\r<br />\r\r<TABLE CELLPADDING=0 CELLSPACING=0 BORDER=0 ALIGN=RIGHT>\r<TR>\r<TD><span class=VSMALLBOLD><a href="#top">Back to top</a>\xc2\xa0\xc2\xa0\xc2\xa0</VSMALLBOLD></TD>\r<TD><a href="#top"><IMG SRC="/img/top.gif" BORDER=0 WIDTH=10 HEIGHT=10 alt="back to top"></A></TD>\r</TR>\r</TABLE>\r<BR><BR>\r<br />\r\r<a name="rates3"></a>\r<span class="bodytextbold">50 Day Notice Account for personal savers</span>\r\r<br /><br />\r\r<table width=100% border=2 cellpadding=3 cellspacing=0 bordercolor=#003163>\r\r<tr bgcolor="#003163">\r<th id="balance" rowspan=2 CLASS="bodytextboldwhite" align=center>Balance</th>\r<th id="interestyearly" colspan=2 CLASS="bodytextboldwhite" align=center>Interest paid yearly</th>\r<th id="interestmonthly" colspan=3 CLASS="bodytextboldwhite" align=center>Interest paid monthly</th>\r</tr>\r\r<tr>\r<td header="interestyearly" CLASS="bodytextboldwhite" align=center bgcolor="#003163">Gross/AER %</td>\r<td header="interestyearly" CLASS="bodytextboldwhite" align=center bgcolor="#003163">Net %</td>\r<td header="interestmonthly" CLASS="bodytextboldwhite" align=center bgcolor="#003163">Gross %</td>\r<td header="interestmonthly" CLASS="bodytextboldwhite" align=center bgcolor="#003163">AER %</td>\r<td header="interestmonthly" CLASS="bodytextboldwhite" align=center bgcolor="#003163">Net%</td>\r</tr>\r\r<tr>\r<td header="balance" CLASS="tablemaize" align=center>\xc5\x811 - \xc5\x814,999</td>\r<td header="interestyearly" CLASS="tablepaleyellow" align=center>3.70</td>\r<td header="interestyearly" CLASS="tablepaleyellow" align=center>2.96</td>\r<td header="interestmonthly" CLASS="tablepaleyellow" align=center>3.63</td>\r<td header="interestmonthly" CLASS="tablepaleyellow" align=center>3.70</td>\r<td header="interestmonthly" CLASS="tablepaleyellow" align=center>2.91</td>\r</tr>\r\r<tr>\r<td header="balance" CLASS="tablemaize" align=center>\xc5\x815,000 - \xc5\x819,999</td>\r<td header="interestyearly" CLASS="tablepaleyellow" align=center>3.75</td>\r<td header="interestyearly" CLASS="tablepaleyellow" align=center>3.00</td>\r<td header="interestmonthly" CLASS="tablepaleyellow" align=center>3.68</td>\r<td header="interestmonthly" CLASS="tablepaleyellow" align=center>3.75</td>\r<td header="interestmonthly" CLASS="tablepaleyellow" align=center>2.94</td>\r</tr>\r\r<tr>\r<td header="balance" CLASS="tablemaize" align=center>\xc5\x8110,000 - \xc5\x8124,999</td>\r<td header="interestyearly" CLASS="tablepaleyellow" align=center>4.11</td>\r<td header="interestyearly" CLASS="tablepaleyellow" align=center>3.28</td>\r<td header="interestmonthly" CLASS="tablepaleyellow" align=center>4.03</td>\r<td header="interestmonthly" CLASS="tablepaleyellow" align=center>4.11</td>\r<td header="interestmonthly" CLASS="tablepaleyellow" align=center>3.22</td>\r</tr>\r\r<tr>\r<td header="balance" CLASS="tablemaize" align=center>\xc5\x8125,000 - \xc5\x8149,999</td>\r<td header="interestyearly" CLASS="tablepaleyellow" align=center>4.13</td>\r<td header="interestyearly" CLASS="tablepaleyellow" align=center>3.30</td>\r<td header="interestmonthly" CLASS="tablepaleyellow" align=center>4.05</td>\r<td header="interestmonthly" CLASS="tablepaleyellow" align=center>4.13</td>\r<td header="interestmonthly" CLASS="tablepaleyellow" align=center>3.24</td>\r</tr>\r\r<tr>\r<td header="balance" CLASS="tablemaize" align=center>\xc5\x8150,000+</td>\r<td header="interestyearly" CLASS="tablepaleyellow" align=center>4.15</td>\r<td header="interestyearly" CLASS="tablepaleyellow" align=center>3.32</td>\r<td header="interestmonthly" CLASS="tablepaleyellow" align=center>4.07</td>\r<td header="interestmonthly" CLASS="tablepaleyellow" align=center>4.15</td>\r<td header="interestmonthly" CLASS="tablepaleyellow" align=center>3.25</td>\r</tr>\r</table>\r\r<table width="95%" border="0" cellpadding="0" cellspacing="0">\r<tr>\r<td height="25" colspan="2">\r<A HREF="page.php?id_link=597" onClick="windowOpenSized(\'popup\', 380, 450)" TARGET="popup">\r<DIV class="VSMALLBOLD" ALIGN="RIGHT" STYLE="position: relative; left:">\rLegal Information<IMG SRC="/img/gosmallyellow.gif" BORDER="0" WIDTH="10" HSPACE="2" HEIGHT="10" ALIGN="BOTTOM" alt="*"></DIV>\r\r</a>\r</td></tr>\r</table>\r\r<br />\r<span class="vsmalli">\rInterest rates effective from 15 November 2001\r</span>\r<TABLE CELLPADDING=0 CELLSPACING=0 BORDER=0 ALIGN=RIGHT>\r<TR>\r<TD><span class=VSMALLBOLD><a href="#top">Back to top</a>\xc2\xa0\xc2\xa0\xc2\xa0</VSMALLBOLD></TD>\r<TD><a href="#top"><IMG SRC="/img/top.gif" BORDER=0 WIDTH=10 HEIGHT=10 alt="back to top"></A></TD>\r</TR>\r</TABLE>\r<BR><BR>\r<br />\r\r<a name="rates6"></a>\r<span class="bodytextbold">ISA Direct Access Savings Account for personal savers</span>\r<br /><br />\r<table width=100% border=2 cellpadding=3 cellspacing=0 bordercolor=#003163>\r\r<tr bgcolor="#003163">\r<th id="balance" rowspan=2 CLASS="bodytextboldwhite" align=center>Balance</th>\r<th id="interestyearly" colspan=1 CLASS="bodytextboldwhite" align=center>Interest paid yearly</th>\r<th id="interestmonthly" colspan=2 CLASS="bodytextboldwhite" align=center>Interest paid monthly</th>\r</tr>\r\r<tr>\r<td header="interestyearly" CLASS="bodytextboldwhite" align=center bgcolor="#003163">Gross/AER %</td>\r<td header="interestmonthly" CLASS="bodytextboldwhite" align=center bgcolor="#003163">Gross %</td>\r<td header="interestmonthly" CLASS="bodytextboldwhite" align=center bgcolor="#003163">AER %</td>\r</tr>\r\r<tr>\r<td header="balance" CLASS="tablemaize" align=center>\xc5\x811 - \xc5\x814,999</td>\r<td header="interestyearly" CLASS="tablepaleyellow" align=center>3.60</td>\r<td header="interestmonthly" CLASS="tablepaleyellow" align=center>3.54</td>\r<td header="interestmonthly" CLASS="tablepaleyellow" align=center>3.60</td>\r</tr>\r\r<tr>\r<td header="balance" CLASS="tablemaize" align=center>\xc5\x815,000 - \xc5\x8111,999</td>\r<td header="interestyearly" CLASS="tablepaleyellow" align=center>3.65</td>\r<td header="interestmonthly" CLASS="tablepaleyellow" align=center>3.59</td>\r<td header="interestmonthly" CLASS="tablepaleyellow" align=center>3.65</td>\r</tr>\r\r<tr>\r<td header="balance" CLASS="tablemaize" align=center>\xc5\x8112,000 - \xc5\x8129,999</td>\r<td header="interestyearly" CLASS="tablepaleyellow" align=center>3.73</td>\r<td header="interestmonthly" CLASS="tablepaleyellow" align=center>3.66</td>\r<td header="interestmonthly" CLASS="tablepaleyellow" align=center>3.73</td>\r</tr>\r\r<tr>\r<td header="balance" CLASS="tablemaize" align=center>\xc5\x8130,000 - \xc5\x8159,999</td>\r<td header="interestyearly" CLASS="tablepaleyellow" align=center>3.75</td>\r<td header="interestmonthly" CLASS="tablepaleyellow" align=center>3.68</td>\r<td header="interestmonthly" CLASS="tablepaleyellow" align=center>3.75</td>\r</tr>\r\r<tr>\r<td header="balance" CLASS="tablemaize" align=center>\xc5\x8160,000+</td>\r<td header="interestyearly" CLASS="tablepaleyellow" align=center>3.80</td>\r<td header="interestmonthly" CLASS="tablepaleyellow" align=center>3.73</td>\r<td header="interestmonthly" CLASS="tablepaleyellow" align=center>3.80</td>\r</tr>\r</table>\r\r<table width="95%" border="0" cellpadding="0" cellspacing="0">\r<tr>\r<td height="25" colspan="2">\r<A HREF="page.php?id_link=501" onClick="windowOpenSized(\'popup\', 380, 450)" TARGET="popup">\r<DIV class="VSMALLBOLD" ALIGN="RIGHT" STYLE="position: relative; left:">\rLegal Information<IMG SRC="/img/gosmallyellow.gif" BORDER="0" WIDTH="10" HSPACE="2" HEIGHT="10" ALIGN="BOTTOM" alt="*"></DIV>\r\r</a>\r</td></tr>\r</table>\r<br />\r\r<span class="vsmalli">\rInterest rates effective from 15 November 2001<br />\rMaximum investment to cash component of ISA for 2001/2002 tax year is \xc5\x813,000\r</span>\r<TABLE CELLPADDING=0 CELLSPACING=0 BORDER=0 ALIGN=RIGHT>\r<TR>\r<TD><span class=VSMALLBOLD><a href="#top">Back to top</a>\xc2\xa0\xc2\xa0\xc2\xa0</VSMALLBOLD></TD>\r<TD><a href="#top"><IMG SRC="/img/top.gif" BORDER=0 WIDTH=10 HEIGHT=10 alt="back to top"></A></TD>\r</TR>\r</TABLE>\r<BR><BR>\r<br />\r<a name="rates7"></a>\r<span class="bodytextbold">ISA 50 Day Notice Account for personal savers</span>\r<br /><br />\r<table width=100% border=2 cellpadding=3 cellspacing=0 bordercolor=#003163>\r\r<tr bgcolor="#003163">\r<th id="balance" rowspan=2 CLASS="bodytextboldwhite" align=center>Balance</th>\r<th id="interestyearly" colspan=1 CLASS="bodytextboldwhite" align=center>Interest paid yearly</th>\r<th id="interestmonthly" colspan=2 CLASS="bodytextboldwhite" align=center>Interest paid monthly</th>\r</tr>\r\r<tr>\r<td header="interestyearly" CLASS="bodytextboldwhite" align=center bgcolor="#003163">Gross/AER %</td>\r<td header="interestmonthly" CLASS="bodytextboldwhite" align=center bgcolor="#003163">Gross %</td>\r<td header="interestmonthly" CLASS="bodytextboldwhite" align=center bgcolor="#003163">AER %</td>\r</tr>\r\r<tr>\r<td header="balance" CLASS="tablemaize" align=center>\xc5\x811 - \xc5\x814,999</td>\r<td header="interestyearly" CLASS="tablepaleyellow" align=center>3.70</td>\r<td header="interestmonthly" CLASS="tablepaleyellow" align=center>3.63</td>\r<td header="interestmonthly" CLASS="tablepaleyellow" align=center>3.70</td>\r</tr>\r\r<tr>\r<td header="balance" CLASS="tablemaize" align=center>\xc5\x815,000 - \xc5\x819,999</td>\r<td header="interestyearly" CLASS="tablepaleyellow" align=center>3.75</td>\r<td header="interestmonthly" CLASS="tablepaleyellow" align=center>3.68</td>\r<td header="interestmonthly" CLASS="tablepaleyellow" align=center>3.75</td>\r</tr>\r\r<tr>\r<td header="balance" CLASS="tablemaize" align=center>\xc5\x8110,000 - \xc5\x8124,999</td>\r<td header="interestyearly" CLASS="tablepaleyellow" align=center>4.11</td>\r<td header="interestmonthly" CLASS="tablepaleyellow" align=center>4.03</td>\r<td header="interestmonthly" CLASS="tablepaleyellow" align=center>4.11</td>\r</tr>\r\r<tr>\r<td header="balance" CLASS="tablemaize" align=center>\xc5\x8125,000 - \xc5\x8149,999</td>\r<td header="interestyearly" CLASS="tablepaleyellow" align=center>4.13</td>\r<td header="interestmonthly" CLASS="tablepaleyellow" align=center>4.05</td>\r<td header="interestmonthly" CLASS="tablepaleyellow" align=center>4.13</td>\r</tr>\r\r<tr>\r<td header="balance" CLASS="tablemaize" align=center>\xc5\x8150,000+</td>\r<td header="interestyearly" CLASS="tablepaleyellow" align=center>4.15</td>\r<td header="interestmonthly" CLASS="tablepaleyellow" align=center>4.07</td>\r<td header="interestmonthly" CLASS="tablepaleyellow" align=center>4.15</td>\r</tr>\r</table>\r\r<table width="95%" border="0" cellpadding="0" cellspacing="0">\r<tr>\r<td height="25" colspan="2">\r<A HREF="page.php?id_link=501" onClick="windowOpenSized(\'popup\', 380, 450)" TARGET="popup">\r<DIV class="VSMALLBOLD" ALIGN="RIGHT" STYLE="position: relative; left:">\rLegal Information<IMG SRC="/img/gosmallyellow.gif" BORDER="0" WIDTH="10" HSPACE="2" HEIGHT="10" ALIGN="BOTTOM" alt="*"></DIV>\r\r</a>\r</td></tr>\r</table>\r\r<br />\r<span class="vsmalli">\rInterest rates effective from 15 November 2001<br />\rMaximum investment to cash component of ISA for 2001/2002 tax year is \xc5\x813,000\r</span>\r<TABLE CELLPADDING=0 CELLSPACING=0 BORDER=0 ALIGN=RIGHT>\r<TR>\r<TD><span class=VSMALLBOLD><a href="#top">Back to top</a>\xc2\xa0\xc2\xa0\xc2\xa0</VSMALLBOLD></TD>\r<TD><a href="#top"><IMG SRC="/img/top.gif" BORDER=0 WIDTH=10 HEIGHT=10 alt="back to top"></A></TD>\r</TR>\r</TABLE>\r<BR><BR>\r\r<br />\r<a name="rates8"></a>\r<span class="bodytextbold">Direct Access Savings Account for business and client accounts</span>\r<br /><br />\r<table width=100% border=2 cellpadding=3 cellspacing=0 bordercolor=#003163>\r\r<tr bgcolor="#003163">\r<th id="balance" rowspan=2 CLASS="bodytextboldwhite" align=center>Balance</th>\r<th id="interestyearly" colspan=2 CLASS="bodytextboldwhite" align=center>Interest paid yearly</th>\r<th id="interestmonthly" colspan=3 CLASS="bodytextboldwhite" align=center>Interest paid monthly</th>\r</tr>\r\r<tr>\r<td header="interestyearly" CLASS="bodytextboldwhite" align=center bgcolor="#003163">Gross/AER %</td>\r<td header="interestyearly" CLASS="bodytextboldwhite" align=center bgcolor="#003163">Net %</td>\r<td header="interestmonthly" CLASS="bodytextboldwhite" align=center bgcolor="#003163">Gross %</td>\r<td header="interestmonthly" CLASS="bodytextboldwhite" align=center bgcolor="#003163">AER %</td>\r<td header="interestmonthly" CLASS="bodytextboldwhite" align=center bgcolor="#003163">Net%</td>\r</tr>\r\r<tr>\r<td header="balance" CLASS="tablemaize" align=center>\xc5\x811 - \xc5\x8149,999</td>\r<td header="interestyearly" CLASS="tablepaleyellow" align=center>3.16</td>\r<td header="interestyearly" CLASS="tablepaleyellow" align=center>2.52</td>\r<td header="interestmonthly" CLASS="tablepaleyellow" align=center>3.11</td>\r<td header="interestmonthly" CLASS="tablepaleyellow" align=center>3.16</td>\r<td header="interestmonthly" CLASS="tablepaleyellow" align=center>2.49</td>\r</tr>\r\r<tr>\r<td header="balance" CLASS="tablemaize" align=center>\xc5\x8150,000 - \xc5\x81199,999</td>\r<td header="interestyearly" CLASS="tablepaleyellow" align=center>3.19</td>\r<td header="interestyearly" CLASS="tablepaleyellow" align=center>2.55</td>\r<td header="interestmonthly" CLASS="tablepaleyellow" align=center>3.14</td>\r<td header="interestmonthly" CLASS="tablepaleyellow" align=center>3.19</td>\r<td header="interestmonthly" CLASS="tablepaleyellow" align=center>2.51</td>\r</tr>\r\r<tr>\r<td header="balance" CLASS="tablemaize" align=center>\xc5\x81200,000 - \xc5\x81499,999</td>\r<td header="interestyearly" CLASS="tablepaleyellow" align=center>3.21</td>\r<td header="interestyearly" CLASS="tablepaleyellow" align=center>2.56</td>\r<td header="interestmonthly" CLASS="tablepaleyellow" align=center>3.16</td>\r<td header="interestmonthly" CLASS="tablepaleyellow" align=center>3.21</td>\r<td header="interestmonthly" CLASS="tablepaleyellow" align=center>2.53</td>\r</tr>\r\r<tr>\r<td header="balance" CLASS="tablemaize" align=center>\xc5\x81500,000 - \xc5\x81999,999</td>\r<td header="interestyearly" CLASS="tablepaleyellow" align=center>3.24</td>\r<td header="interestyearly" CLASS="tablepaleyellow" align=center>2.59</td>\r<td header="interestmonthly" CLASS="tablepaleyellow" align=center>3.19</td>\r<td header="interestmonthly" CLASS="tablepaleyellow" align=center>3.24</td>\r<td header="interestmonthly" CLASS="tablepaleyellow" align=center>2.55</td>\r</tr>\r\r<tr>\r<td header="balance" CLASS="tablemaize" align=center>\xc5\x811,000,000+</td>\r<td header="interestyearly" CLASS="tablepaleyellow" align=center>3.26</td>\r<td header="interestyearly" CLASS="tablepaleyellow" align=center>2.60</td>\r<td header="interestmonthly" CLASS="tablepaleyellow" align=center>3.21</td>\r<td header="interestmonthly" CLASS="tablepaleyellow" align=center>3.26</td>\r<td header="interestmonthly" CLASS="tablepaleyellow" align=center>2.56</td>\r</tr>\r</table>\r\r<table width="95%" border="0" cellpadding="0" cellspacing="0">\r<tr>\r<td height="25" colspan="2">\r<A HREF="page.php?id_link=502" onClick="windowOpenSized(\'popup\', 380, 450)" TARGET="popup">\r<DIV class="VSMALLBOLD" ALIGN="RIGHT" STYLE="position: relative; left:">\rLegal Information<IMG SRC="/img/gosmallyellow.gif" BORDER="0" WIDTH="10" HSPACE="2" HEIGHT="10" ALIGN="BOTTOM" alt="*"></DIV>\r\r</a>\r</td></tr>\r</table>\r\r<br />\r<span class="vsmalli">\rInterest rates effective from 15 November 2001<br />Interest on client accounts is paid net.\r</span>\r<TABLE CELLPADDING=0 CELLSPACING=0 BORDER=0 ALIGN=RIGHT>\r<TR>\r<TD><span class=VSMALLBOLD><a href="#top">Back to top</a>\xc2\xa0\xc2\xa0\xc2\xa0</VSMALLBOLD></TD>\r<TD><a href="#top"><IMG SRC="/img/top.gif" BORDER=0 WIDTH=10 HEIGHT=10 alt="back to top"></A></TD>\r</TR>\r</TABLE>\r<BR><BR>\r<br />\r\r<a name="rates9"></a>\r<span class="bodytextbold">10 Day Notice Account for business and client accounts</span>\r<br /><br />\r\r<table width=100% border=2 cellpadding=3 cellspacing=0 bordercolor=#003163>\r\r<tr bgcolor="#003163">\r<th id="balance" rowspan=2 CLASS="bodytextboldwhite" align=center>Balance</th>\r<th id="interestyearly" colspan=2 CLASS="bodytextboldwhite" align=center>Interest paid yearly</th>\r<th id="interestmonthly" colspan=3 CLASS="bodytextboldwhite" align=center>Interest paid monthly</th>\r</tr>\r\r<tr>\r<td header="interestyearly" CLASS="bodytextboldwhite" align=center bgcolor="#003163">Gross/AER %</td>\r<td header="interestyearly" CLASS="bodytextboldwhite" align=center bgcolor="#003163">Net %</td>\r<td header="interestmonthly" CLASS="bodytextboldwhite" align=center bgcolor="#003163">Gross %</td>\r<td header="interestmonthly" CLASS="bodytextboldwhite" align=center bgcolor="#003163">AER %</td>\r<td header="interestmonthly" CLASS="bodytextboldwhite" align=center bgcolor="#003163">Net%</td>\r</tr>\r\r<tr>\r<td header="balance" CLASS="tablemaize" align=center>\xc5\x811 - \xc5\x8149,999</td>\r<td header="interestyearly" CLASS="tablepaleyellow" align=center>3.31</td>\r<td header="interestyearly" CLASS="tablepaleyellow" align=center>2.64</td>\r<td header="interestmonthly" CLASS="tablepaleyellow" align=center>3.26</td>\r<td header="interestmonthly" CLASS="tablepaleyellow" align=center>3.31</td>\r<td header="interestmonthly" CLASS="tablepaleyellow" align=center>2.60</td>\r</tr>\r<tr>\r<td header="balance" CLASS="tablemaize" align=center>\xc5\x8150,000 - \xc5\x81199,999</td>\r<td header="interestyearly" CLASS="tablepaleyellow" align=center>3.34</td>\r<td header="interestyearly" CLASS="tablepaleyellow" align=center>2.67</td>\r<td header="interestmonthly" CLASS="tablepaleyellow" align=center>3.28</td>\r<td header="interestmonthly" CLASS="tablepaleyellow" align=center>3.34</td>\r<td header="interestmonthly" CLASS="tablepaleyellow" align=center>2.63</td>\r</tr>\r<tr>\r<td header="balance" CLASS="tablemaize" align=center>\xc5\x81200,000 - \xc5\x81499,999</td>\r<td header="interestyearly" CLASS="tablepaleyellow" align=center>3.36</td>\r<td header="interestyearly" CLASS="tablepaleyellow" align=center>2.68</td>\r<td header="interestmonthly" CLASS="tablepaleyellow" align=center>3.30</td>\r<td header="interestmonthly" CLASS="tablepaleyellow" align=center>3.36</td>\r<td header="interestmonthly" CLASS="tablepaleyellow" align=center>2.64</td>\r</tr>\r<tr>\r<td header="balance" CLASS="tablemaize" align=center>\xc5\x81500,000 - \xc5\x81999,999</td>\r<td header="interestyearly" CLASS="tablepaleyellow" align=center>3.39</td>\r<td header="interestyearly" CLASS="tablepaleyellow" align=center>2.71</td>\r<td header="interestmonthly" CLASS="tablepaleyellow" align=center>3.33</td>\r<td header="interestmonthly" CLASS="tablepaleyellow" align=center>3.39</td>\r<td header="interestmonthly" CLASS="tablepaleyellow" align=center>2.67</td>\r</tr>\r<tr>\r<td header="balance" CLASS="tablemaize" align=center>\xc5\x811,000,000+</td>\r<td header="interestyearly" CLASS="tablepaleyellow" align=center>3.41</td>\r<td header="interestyearly" CLASS="tablepaleyellow" align=center>2.72</td>\r<td header="interestmonthly" CLASS="tablepaleyellow" align=center>3.35</td>\r<td header="interestmonthly" CLASS="tablepaleyellow" align=center>3.41</td>\r<td header="interestmonthly" CLASS="tablepaleyellow" align=center>2.68</td>\r</tr>\r</table>\r\r<table width="95%" border="0" cellpadding="0" cellspacing="0">\r<tr>\r<td height="25" colspan="2">\r<A HREF="page.php?id_link=502" onClick="windowOpenSized(\'popup\', 380, 450)" TARGET="popup">\r<DIV class="VSMALLBOLD" ALIGN="RIGHT" STYLE="position: relative; left:">\rLegal Information<IMG SRC="/img/gosmallyellow.gif" BORDER="0" WIDTH="10" HSPACE="2" HEIGHT="10" ALIGN="BOTTOM" alt="*"></DIV>\r\r</a>\r</td></tr>\r</table>\r\r<br />\r<span class="vsmalli">\rInterest rates effective from 15 November 2001<br />\rInterest on client accounts is paid net.<br />\r</span> <TABLE CELLPADDING=0 CELLSPACING=0 BORDER=0 ALIGN=RIGHT>\r<TR>\r<TD><span class=VSMALLBOLD><a href="#top">Back to top</a>\xc2\xa0\xc2\xa0\xc2\xa0</VSMALLBOLD></TD>\r<TD><a href="#top"><IMG SRC="/img/top.gif" BORDER=0 WIDTH=10 HEIGHT=10 alt="back to top"></A></TD>\r</TR>\r</TABLE>\r<BR><BR>\r\r<a name="rates5"></a>\r<span class="bodytextbold">Fixed Rate Bond</span>\r<br /><br />\r<table width=100% border=2 cellpadding=3 cellspacing=0 bordercolor=#003163>\r\r<tr bgcolor="#003163">\r<th id="launched" rowspan=2 CLASS="bodytextboldwhite" align=center>Launched</th>\r<th id="interestyearly" colspan=2 CLASS="bodytextboldwhite" align=center>Interest paid yearly</th>\r<th id="interestmonthly" colspan=3 CLASS="bodytextboldwhite" align=center>Interest paid monthly</th>\r</tr>\r\r<tr>\r<td header="interestyearly" CLASS="bodytextboldwhite" align=center bgcolor="#003163">Gross/AER %</td>\r<td header="interestyearly" CLASS="bodytextboldwhite" align=center bgcolor="#003163">Net %</td>\r<td header="interestmonthly" CLASS="bodytextboldwhite" align=center bgcolor="#003163">Gross %</td>\r<td header="interestmonthly" CLASS="bodytextboldwhite" align=center bgcolor="#003163">AER %</td>\r<td header="interestmonthly" CLASS="bodytextboldwhite" align=center bgcolor="#003163">Net%</td>\r</tr>\r\r<tr>\r<td colspan=6 CLASS="bodytextboldwhite" align=left bgcolor="#003163">Current Fixed Rate Bonds</td>\r</tr>\r\r<tr>\r<td header="launched" CLASS="tablemaize" align=center>15 April 2002<br />matures 15 April 2003</td>\r<td header="interestyearly" CLASS="tablepaleyellow" align=center>4.50</td>\r<td header="interestyearly" CLASS="tablepaleyellow" align=center>3.60</td>\r<td header="interestmonthly" CLASS="tablepaleyellow" align=center>4.41</td>\r<td header="interestmonthly" CLASS="tablepaleyellow" align=center>4.50</td>\r<td header="interestmonthly" CLASS="tablepaleyellow" align=center>3.53</td>\r</tr>\r\r<tr>\r<td header="launched" CLASS="tablemaize" align=center>15 April 2002<br />matures 15 April 2004</td>\r<td header="interestyearly" CLASS="tablepaleyellow" align=center>4.75</td>\r<td header="interestyearly" CLASS="tablepaleyellow" align=center>3.80</td>\r<td header="interestmonthly" CLASS="tablepaleyellow" align=center>4.65</td>\r<td header="interestmonthly" CLASS="tablepaleyellow" align=center>4.75</td>\r<td header="interestmonthly" CLASS="tablepaleyellow" align=center>3.72</td>\r</tr>\r\r<tr>\r<td header="launched" CLASS="tablemaize" align=center>15 April 2002<br />matures 15 April 2005</td>\r<td header="interestyearly" CLASS="tablepaleyellow" align=center>5.00</td>\r<td header="interestyearly" CLASS="tablepaleyellow" align=center>4.00</td>\r<td header="interestmonthly" CLASS="tablepaleyellow" align=center>4.89</td>\r<td header="interestmonthly" CLASS="tablepaleyellow" align=center>5.00</td>\r<td header="interestmonthly" CLASS="tablepaleyellow" align=center>3.91</td>\r</tr>\r\r<tr>\r<td colspan=6 CLASS="bodytextboldwhite" align=left bgcolor="#003163">Previous Fixed Rate Bonds</td>\r</tr>\r\r<tr>\r<td header="launched" CLASS="tablemaize" align=center>13 December 2001<br />matures 13 December 2004</td>\r<td header="interestyearly" CLASS="tablepaleyellow" align=center>4.90</td>\r<td header="interestyearly" CLASS="tablepaleyellow" align=center>3.92</td>\r<td header="interestmonthly" CLASS="tablepaleyellow" align=center>4.79</td>\r<td header="interestmonthly" CLASS="tablepaleyellow" align=center>4.90</td>\r<td header="interestmonthly" CLASS="tablepaleyellow" align=center>3.83</td>\r</tr>\r\r<tr>\r<td header="launched" CLASS="tablemaize" align=center>08 October 2001<br />matures 08 October 2004</td>\r<td header="interestyearly" CLASS="tablepaleyellow" align=center>4.90</td>\r<td header="interestyearly" CLASS="tablepaleyellow" align=center>3.92</td>\r<td header="interestmonthly" CLASS="tablepaleyellow" align=center>4.79</td>\r<td header="interestmonthly" CLASS="tablepaleyellow" align=center>4.90</td>\r<td header="interestmonthly" CLASS="tablepaleyellow" align=center>3.83</td>\r</tr>\r\r<tr>\r<td header="launched" CLASS="tablemaize" align=center>22 January 2001<br />matures 23 January 2002</td>\r<td header="interestyearly" CLASS="tablepaleyellow" align=center>6.00</td>\r<td header="interestyearly" CLASS="tablepaleyellow" align=center>4.80</td>\r<td header="interestmonthly" CLASS="tablepaleyellow" align=center>5.84</td>\r<td header="interestmonthly" CLASS="tablepaleyellow" align=center>6.00</td>\r<td header="interestmonthly" CLASS="tablepaleyellow" align=center>4.67</td>\r</tr>\r\r<tr>\r<td header="launched" CLASS="tablemaize" align=center>04 December 2000<br />matures 04 June 2002</td>\r<td header="interestyearly" CLASS="tablepaleyellow" align=center>6.25</td>\r<td header="interestyearly" CLASS="tablepaleyellow" align=center>5.00</td>\r<td header="interestmonthly" CLASS="tablepaleyellow" align=center>6.07</td>\r<td header="interestmonthly" CLASS="tablepaleyellow" align=center>6.25</td>\r<td header="interestmonthly" CLASS="tablepaleyellow" align=center>4.86</td>\r</tr>\r\r<tr>\r<td header="launched" CLASS="tablemaize" align=center>17 January 2000<br />matures 17 July 2002</td>\r<td header="interestyearly" CLASS="tablepaleyellow" align=center>7.00</td>\r<td header="interestyearly" CLASS="tablepaleyellow" align=center>5.60</td>\r<td header="interestmonthly" CLASS="tablepaleyellow" align=center>6.78</td>\r<td header="interestmonthly" CLASS="tablepaleyellow" align=center>7.00</td>\r<td header="interestmonthly" CLASS="tablepaleyellow" align=center>5.43</td>\r</tr>\r\r<tr>\r<td header="launched" CLASS="tablemaize" align=center>27 September 1999<br />matures 27 July 2002</td>\r<td header="interestyearly" CLASS="tablepaleyellow" align=center>6.50</td>\r<td header="interestyearly" CLASS="tablepaleyellow" align=center>5.20</td>\r<td header="interestmonthly" CLASS="tablepaleyellow" align=center>6.31</td>\r<td header="interestmonthly" CLASS="tablepaleyellow" align=center>6.50</td>\r<td header="interestmonthly" CLASS="tablepaleyellow" align=center>5.05</td>\r</tr>\r<tr>\r<td header="launched" CLASS="tablemaize" align=center>05 July 1999<br />matures 05 July 2002</td>\r<td header="interestyearly" CLASS="tablepaleyellow" align=center>6.00</td>\r<td header="interestyearly" CLASS="tablepaleyellow" align=center>4.80</td>\r<td header="interestmonthly" CLASS="tablepaleyellow" align=center>5.84</td>\r<td header="interestmonthly" CLASS="tablepaleyellow" align=center>6.00</td>\r<td header="interestmonthly" CLASS="tablepaleyellow" align=center>4.67</td>\r</tr>\r</table>\r\r<table width="95%" border="0" cellpadding="0" cellspacing="0">\r<tr>\r<td height="25" colspan="2">\r<A HREF="page.php?id_link=499" onClick="windowOpenSized(\'popup\', 380, 450)" TARGET="popup">\r<DIV class="VSMALLBOLD" ALIGN="RIGHT" STYLE="position: relative; left:">\rLegal Information<IMG SRC="/img/gosmallyellow.gif" BORDER="0" WIDTH="10" HSPACE="2" HEIGHT="10" ALIGN="BOTTOM" alt="*"></DIV>\r\r</a>\r</td></tr>\r</table>\r\r<br />\r<span class="vsmalli">\rInterest rates effective from 15 April 2002.<br />\r</span>\r<TABLE CELLPADDING=0 CELLSPACING=0 BORDER=0 ALIGN=RIGHT>\r<TR>\r<TD><span class=VSMALLBOLD><a href="#top">Back to top</a>\xc2\xa0\xc2\xa0\xc2\xa0</VSMALLBOLD></TD>\r<TD><a href="#top"><IMG SRC="/img/top.gif" BORDER=0 WIDTH=10 HEIGHT=10 alt="back to top"></A></TD>\r</TR>\r</TABLE>\r<BR><BR>\r<br />\r\r\r<a name="rates4"></a>\r<span class="bodytextbold">Escalator Bond</span>\r<br /><br />\r<table width=100% border=2 cellpadding=3 cellspacing=0 bordercolor=#003163>\r\r<tr bgcolor="#003163">\r<th id="dates" rowspan=2 CLASS="bodytextboldwhite" align=center>Dates</th>\r<th id="interestyearly" colspan=2 CLASS="bodytextboldwhite" align=center>Interest paid yearly</th>\r<th id="interestmonthly" colspan=3 CLASS="bodytextboldwhite" align=center>Interest paid monthly</th>\r</tr>\r\r<tr>\r<td header="interestyearly" CLASS="bodytextboldwhite" align=center bgcolor="#003163">Gross/AER %</td>\r<td header="interestyearly" CLASS="bodytextboldwhite" align=center bgcolor="#003163">Net %</td>\r<td header="interestmonthly" CLASS="bodytextboldwhite" align=center bgcolor="#003163">Gross %</td>\r<td header="interestmonthly" CLASS="bodytextboldwhite" align=center bgcolor="#003163">AER %</td>\r<td header="interestmonthly" CLASS="bodytextboldwhite" align=center bgcolor="#003163">Net%</td>\r</tr>\r\r<tr>\r<td header="dates" CLASS="tablemaize" align=center>14 Aug 2000 - 13 Aug 2001*</td>\r<td header="interestyearly" CLASS="tablepaleyellow" align=center>5.10</td>\r<td header="interestyearly" CLASS="tablepaleyellow" align=center>4.08</td>\r<td header="interestmonthly" CLASS="tablepaleyellow" align=center>4.98</td>\r<td header="interestmonthly" CLASS="tablepaleyellow" align=center>5.10</td>\r<td header="interestmonthly" CLASS="tablepaleyellow" align=center>3.98</td>\r</tr>\r\r\r\r<tr>\r<td header="dates" CLASS="tablemaize" align=center>14 Aug 2001 - 13 Aug 2002*</td>\r<td header="interestyearly" CLASS="tablepaleyellow" align=center>6.15</td>\r<td header="interestyearly" CLASS="tablepaleyellow" align=center>4.92</td>\r<td header="interestmonthly" CLASS="tablepaleyellow" align=center>5.98</td>\r<td header="interestmonthly" CLASS="tablepaleyellow" align=center>6.15</td>\r<td header="interestmonthly" CLASS="tablepaleyellow" align=center>4.78</td>\r</tr>\r\r\r\r<tr>\r<td header="dates" CLASS="tablemaize" align=center>14 Aug 2002 - 13 Aug 2003*</td>\r<td header="interestyearly" CLASS="tablepaleyellow" align=center>7.65</td>\r<td header="interestyearly" CLASS="tablepaleyellow" align=center>6.12</td>\r<td header="interestmonthly" CLASS="tablepaleyellow" align=center>7.39</td>\r<td header="interestmonthly" CLASS="tablepaleyellow" align=center>7.65</td>\r<td header="interestmonthly" CLASS="tablepaleyellow" align=center>5.91</td>\r</tr>\r</table>\r\r<table width="95%" border="0" cellpadding="0" cellspacing="0">\r<tr>\r<td height="25" colspan="2">\r<A HREF="page.php?id_link=499" onClick="windowOpenSized(\'popup\', 380, 450)" TARGET="popup">\r<DIV class="VSMALLBOLD" ALIGN="RIGHT" STYLE="position: relative; left:">\rLegal Information<IMG SRC="/img/gosmallyellow.gif" BORDER="0" WIDTH="10" HSPACE="2" HEIGHT="10" ALIGN="BOTTOM" alt="*"></DIV>\r\r</a>\r</td></tr>\r</table>\r\r<br />\r<span class="vsmalli">\rInterest rates effective from 1 October 2000<br />\r* Maturity Date - 14 August 2003<br />\rPlease note that this product is no longer available.\r</span>\r<TABLE CELLPADDING=0 CELLSPACING=0 BORDER=0 ALIGN=RIGHT>\r<TR>\r<TD><span class=VSMALLBOLD><a href="#top">Back to top</a>\xc2\xa0\xc2\xa0\xc2\xa0</VSMALLBOLD></TD>\r<TD><a href="#top"><IMG SRC="/img/top.gif" BORDER=0 WIDTH=10 HEIGHT=10 alt="back to top"></A></TD>\r</TR>\r</TABLE>\r<BR><BR>\r\r\r<P ALIGN=RIGHT><span class="VSMALLI">\rThe information, services and products on this web site are intended for use by residents of the United Kingdom only. Please click on the following link for full details of Standard Life Bank <a href="/page.php?id_link=346"><U>legal information</U></a>\r<BR><BR>\r\xc5\xa02001 Standard Life Bank Limited</span>\r</span>\r</p>\r\r\r\r\r\r\r\r\r</td>\r<td valign=top><img src="/img/space.gif" width="15" height="14" alt="*"></td>\r<td valign=top width="140" align="left"><br>\r<div align="right"><table width=150 cellpadding=0 cellspacing=0 border=0><tr><td align=right valign=top><IMG SRC="/img/postit_phonegirl.jpg" ALT="*" width="150" height="134" BORDER=0 ></td></tr><tr>\r<td bgcolor=#FFE57F><table width=100% cellpadding=5 cellspacing=0 border=0><tr><td bgcolor=#FFE57F><span class=bodytextbold><IMG SRC="/img/66.gif" ALT="Open Quotes" width="12" height="9" BORDER=0  hspace=5>I need to know I\'m getting a great interest rate.  And I need to know it will stay competitive in the future too.<IMG SRC="/img/99.gif" ALT="Close Quotes" width="12" height="9" BORDER=0  hspace=3>\r</span>\r</td>\r</tr>\r<tr>\r<td align=right>\r</td>\r</table>\r</td>\r</tr>\r<tr>\r<td bgcolor=#FFE57F><img src="img/navbottom.gif" width=32 height=10 border=0 ALT="*"></td>\r</tr>\r</table>\r<br>\r\r<table width=150 cellpadding=0 cellspacing=0 border=0>\r<tr>\r<td bgcolor=#FFE57F align=right><img src="img/navtop.gif" width=32 height=10 border=0 ALT="*"></td></td>\r</tr>\r<tr>\r<td bgcolor=#FFE57F>\r<table width=100% cellpadding=5 cellspacing=0 border=0>\r<tr><td><img src="/img/smallnb.gif" alt="*"><SPAN CLASS=BODYTEXTBOLD>\r\t<a href="/page.php?id_link=450">previous rates</a></SPAN></td>\r</TR>\r</table>\r</td>\r</tr>\r<tr>\r<td bgcolor=#FFE57F><img src="img/navbottom.gif" width=32 height=10 border=0 ALT="*"></td>\r</tr>\r</table></div>\r</td>\r<td valign=top width="10" align="left"><img src="/img/space.gif" width="5" height="14" alt="*"></td>\r</tr>\r\r</table>\r</td>\r</tr>\r\r</table>\r\r<!-- START RedMeasure V4 - Java v1.1  $Revision: 1.9 $ -->\r<!-- COPYRIGHT 2000 Red Sheriff Limited -->\r\r<script language="JavaScript"><!--\rvar pCid="uk_standardlife_0";\rvar w0=1;\rvar refR=escape(document.referrer);\rif (refR.length>=252) refR=refR.substring(0,252)+"...";\r//--></script>\r<script language="JavaScript1.1"><!--\rvar w0=0;\r//--></script>\r<script language="JavaScript1.1" src="http://server-uk.imrworldwide.com/a1.js">\r</script>\r<script language="JavaScript"><!--\rif(w0){\rvar imgN=\'<img src="http://server-uk.imrworldwide.com/cgi-bin/count?ref=\'+\r\trefR+\'&cid=\'+pCid+\'" width=1 height=1>\';\rif(navigator.userAgent.indexOf(\'Mac\')!=-1){document.write(imgN);\r}else{\r\tdocument.write(\'<applet code="Measure.class" \'+\r\t\'codebase="http://server-uk.imrworldwide.com/"\'+\'width=1 height=2>\'+\r\t\'<param name="ref" value="\'+refR+\'">\'+\'<param name="cid" value="\'+pCid+\r\t\'"><textflow>\'+imgN+\'</textflow></applet>\');\r\t}\r}\rdocument.write("<COMMENT>");\r//-->\r</script>\r<noscript>\r<img src="http://server-uk.imrworldwide.com/cgi-bin/count?cid=uk_standardlife_0" width=1\rheight=1>\r</noscript>\r</COMMENT>\r\r<!-- END RedMeasure V4 -->\r\r\r</body>\r</html>\r\r'
p11
sS'URL'
p12
S''
p13
sS'encoding'
p14
S'UTF-8'
p15
ssasS'numberOfTopics'
p16
I2
sS'numberOfDocuments'
p17
I1
ssS'numContext'
p18
I0
sg6
(lp19
S'1'
p20
aS'2'
p21
asS'parserParams'
p22
(dp23
S'processing'
p24
S'STEMMING'
p25
ssS'measureParams'
p26
(dp27
S'measure'
p28
S'FREQUENCY'
p29
ssS'classifierParams'
p30
(dp31
S'classType'
p32
S'SVM'
p33
sS'decompType'
p34
S'oneVsOne'
p35
ssS'pmcParams'
p36
(dp37
sS'pmcType'
p38
S'DEFAULT'
p39
s.